; Function Attrs: nounwind uwtable
define internal range(i32 -2147483648, 1) i32 @pam_encode_frame(ptr noundef %0, ptr noundef %1, ptr noundef readonly captures(none) %2, ptr noundef writeonly captures(none) %3) #0 {
  %5 = alloca [100 x i8], align 16
  call void @llvm.lifetime.start.p0(i64 100, ptr nonnull %5) #5
  %6 = getelementptr inbounds nuw i8, ptr %0, i64 116
  %7 = load i32, ptr %6, align 4, !tbaa !4
  %8 = getelementptr inbounds nuw i8, ptr %0, i64 112
  %9 = load i32, ptr %8, align 8, !tbaa !27
  %10 = getelementptr inbounds nuw i8, ptr %0, i64 136
  %11 = load i32, ptr %10, align 8, !tbaa !28
  switch i32 %11, label %68 [
    i32 10, label %27
    i32 8, label %12
    i32 29, label %13
    i32 56, label %15
    i32 109, label %17
    i32 2, label %19
    i32 26, label %21
    i32 34, label %23
    i32 104, label %25
  ]

12:                                               ; preds = %4
  br label %27

13:                                               ; preds = %4
  %14 = shl nsw i32 %9, 1
  br label %27

15:                                               ; preds = %4
  %16 = shl nsw i32 %9, 1
  br label %27

17:                                               ; preds = %4
  %18 = shl nsw i32 %9, 2
  br label %27

19:                                               ; preds = %4
  %20 = mul nsw i32 %9, 3
  br label %27

21:                                               ; preds = %4
  %22 = shl nsw i32 %9, 2
  br label %27

23:                                               ; preds = %4
  %24 = mul nsw i32 %9, 6
  br label %27

25:                                               ; preds = %4
  %26 = shl nsw i32 %9, 3
  br label %27

27:                                               ; preds = %4, %25, %23, %21, %19, %17, %15, %13, %12
  %.063 = phi i32 [ %26, %25 ], [ %24, %23 ], [ %22, %21 ], [ %20, %19 ], [ %18, %17 ], [ %16, %15 ], [ %14, %13 ], [ %9, %12 ], [ %9, %4 ]
  %.062 = phi i32 [ 4, %25 ], [ 3, %23 ], [ 4, %21 ], [ 3, %19 ], [ 2, %17 ], [ 2, %15 ], [ 1, %13 ], [ 1, %12 ], [ 1, %4 ]
  %.061 = phi i32 [ 65535, %25 ], [ 65535, %23 ], [ 255, %21 ], [ 255, %19 ], [ 65535, %17 ], [ 255, %15 ], [ 65535, %13 ], [ 255, %12 ], [ 1, %4 ]
  %.054 = phi ptr [ @.str.6, %25 ], [ @.str.5, %23 ], [ @.str.6, %21 ], [ @.str.5, %19 ], [ @.str.4, %17 ], [ @.str.4, %15 ], [ @.str.3, %13 ], [ @.str.3, %12 ], [ @.str.2, %4 ]
  %28 = call i32 (ptr, i64, ptr, ...) @snprintf(ptr noundef nonnull dereferenceable(1) %5, i64 noundef 100, ptr noundef nonnull @.str.7, i32 noundef %9, i32 noundef %7, i32 noundef %.062, i32 noundef %.061, ptr noundef nonnull %.054) #5
  %29 = mul nsw i32 %.063, %7
  %30 = add nsw i32 %28, %29
  %31 = sext i32 %30 to i64
  %32 = tail call i32 @ff_get_encode_buffer(ptr noundef nonnull %0, ptr noundef %1, i64 noundef %31, i32 noundef 0) #5
  %33 = icmp slt i32 %32, 0
  br i1 %33, label %68, label %34

34:                                               ; preds = %27
  %35 = getelementptr inbounds nuw i8, ptr %1, i64 24
  %36 = load ptr, ptr %35, align 8, !tbaa !29
  %37 = sext i32 %28 to i64
  call void @llvm.memcpy.p0.p0.i64(ptr align 1 %36, ptr nonnull align 16 %5, i64 %37, i1 false)
  %38 = getelementptr inbounds i8, ptr %36, i64 %37
  %39 = load ptr, ptr %2, align 8, !tbaa !31
  %40 = getelementptr inbounds nuw i8, ptr %2, i64 64
  %41 = load i32, ptr %40, align 8, !tbaa !32
  %42 = load i32, ptr %10, align 8, !tbaa !28
  %43 = icmp eq i32 %42, 10
  %44 = icmp sgt i32 %7, 0
  br i1 %43, label %.preheader65, label %.preheader66

.preheader66:                                     ; preds = %34
  br i1 %44, label %.lr.ph, label %.loopexit

.lr.ph:                                           ; preds = %.preheader66
  %45 = sext i32 %.063 to i64
  %46 = sext i32 %41 to i64
  br label %64

.preheader65:                                     ; preds = %34
  br i1 %44, label %.preheader.lr.ph, label %.loopexit

.preheader.lr.ph:                                 ; preds = %.preheader65
  %47 = icmp sgt i32 %9, 0
  %48 = sext i32 %41 to i64
  br i1 %47, label %.preheader.us, label %.loopexit

.preheader.us:                                    ; preds = %.preheader.lr.ph, %._crit_edge.us
  %.05576.us = phi ptr [ %62, %._crit_edge.us ], [ %39, %.preheader.lr.ph ]
  %.05675.us = phi ptr [ %60, %._crit_edge.us ], [ %38, %.preheader.lr.ph ]
  %.05974.us = phi i32 [ %63, %._crit_edge.us ], [ 0, %.preheader.lr.ph ]
  br label %49

49:                                               ; preds = %.preheader.us, %49
  %.072.us = phi i32 [ 0, %.preheader.us ], [ %61, %49 ]
  %.15771.us = phi ptr [ %.05675.us, %.preheader.us ], [ %60, %49 ]
  %50 = lshr i32 %.072.us, 3
  %51 = zext nneg i32 %50 to i64
  %52 = getelementptr inbounds nuw i8, ptr %.05576.us, i64 %51
  %53 = load i8, ptr %52, align 1, !tbaa !33
  %54 = zext i8 %53 to i32
  %55 = and i32 %.072.us, 7
  %56 = xor i32 %55, 7
  %57 = lshr i32 %54, %56
  %58 = trunc nuw i32 %57 to i8
  %59 = and i8 %58, 1
  %60 = getelementptr inbounds nuw i8, ptr %.15771.us, i64 1
  store i8 %59, ptr %.15771.us, align 1, !tbaa !33
  %61 = add nuw nsw i32 %.072.us, 1
  %exitcond79.not = icmp eq i32 %61, %9
  br i1 %exitcond79.not, label %._crit_edge.us, label %49, !llvm.loop !34

._crit_edge.us:                                   ; preds = %49
  %62 = getelementptr inbounds i8, ptr %.05576.us, i64 %48
  %63 = add nuw nsw i32 %.05974.us, 1
  %exitcond80.not = icmp eq i32 %63, %7
  br i1 %exitcond80.not, label %.loopexit, label %.preheader.us, !llvm.loop !36

64:                                               ; preds = %.lr.ph, %64
  %.170 = phi ptr [ %39, %.lr.ph ], [ %66, %64 ]
  %.269 = phi ptr [ %38, %.lr.ph ], [ %65, %64 ]
  %.16068 = phi i32 [ 0, %.lr.ph ], [ %67, %64 ]
  tail call void @llvm.memcpy.p0.p0.i64(ptr align 1 %.269, ptr align 1 %.170, i64 %45, i1 false)
  %65 = getelementptr inbounds i8, ptr %.269, i64 %45
  %66 = getelementptr inbounds i8, ptr %.170, i64 %46
  %67 = add nuw nsw i32 %.16068, 1
  %exitcond.not = icmp eq i32 %67, %7
  br i1 %exitcond.not, label %.loopexit, label %64, !llvm.loop !37

.loopexit:                                        ; preds = %64, %._crit_edge.us, %.preheader.lr.ph, %.preheader66, %.preheader65
  store i32 1, ptr %3, align 4, !tbaa !32
  br label %68

68:                                               ; preds = %27, %4, %.loopexit
  %.058 = phi i32 [ 0, %.loopexit ], [ -1, %4 ], [ %32, %27 ]
  call void @llvm.lifetime.end.p0(i64 100, ptr nonnull %5) #5
  ret i32 %.058
}